target datalayout = "e-m:e-p270:32:32-p271:32:32-p272:64:64-i64:64-i128:128-f80:128-n8:16:32:64-S128"
target triple = "x86_64-pc-linux-gnu"

%struct.slurmdb_job_rec_t = type { ptr, ptr, i32, i32, i32, i32, ptr, i32, ptr, ptr, ptr, ptr, i64, i32, ptr, i32, i64, i64, ptr, i32, ptr, ptr, i32, ptr, i32, i32, i32, i32, ptr, ptr, ptr, ptr, ptr, ptr, i32, i32, ptr, i32, i64, i32, i16, i32, ptr, ptr, i16, i32, i64, i32, i32, ptr, ptr, ptr, ptr, i64, ptr, i32, ptr, i64, i64, i32, i64, i64, ptr, ptr, i32, ptr, ptr, i64, i64, ptr, i32, ptr }
%struct.job_info_msg = type { i64, i64, i32, ptr }
%struct.job_info = type { ptr, i64, ptr, ptr, i32, ptr, i32, i32, i32, ptr, i32, ptr, i16, ptr, i64, i16, ptr, ptr, ptr, ptr, ptr, ptr, ptr, ptr, i16, i16, i16, double, i16, i32, i32, i32, ptr, ptr, i64, i32, ptr, i32, i64, i64, ptr, ptr, i32, ptr, ptr, ptr, ptr, i64, ptr, i64, ptr, i32, ptr, ptr, i32, i32, ptr, i32, i32, ptr, ptr, i32, i64, ptr, i16, ptr, i32, i32, ptr, ptr, ptr, ptr, ptr, i32, ptr, i16, i16, i16, i16, i16, i32, i32, i32, i16, ptr, ptr, i64, i16, i32, i64, i64, i64, i32, ptr, ptr, i32, ptr, i8, ptr, ptr, i32, i16, i64, i16, ptr, ptr, ptr, ptr, i16, i32, i16, i16, i64, i16, ptr, i32, ptr, ptr, ptr, i16, i64, i64, ptr, i32, i32, i16, ptr, ptr, ptr, ptr, ptr, ptr, ptr, ptr, i32, ptr, i32, ptr, ptr }

@.str.18 = private unnamed_addr constant [42 x i8] c"%s: matched known JobId=%u SubmitTime=%lu\00", align 1
@__func__._purge_known_jobs = private unnamed_addr constant [18 x i8] c"_purge_known_jobs\00", align 1
@.str.19 = private unnamed_addr constant [46 x i8] c"%s: runaway job found JobId=%u SubmitTime=%lu\00", align 1

; Function Attrs: nounwind uwtable
define internal i32 @_purge_known_jobs(ptr noundef %0, ptr noundef %1) #0 {
  %3 = alloca i32, align 4
  %4 = alloca ptr, align 8
  %5 = alloca ptr, align 8
  %6 = alloca ptr, align 8
  %7 = alloca ptr, align 8
  %8 = alloca ptr, align 8
  %9 = alloca i32, align 4
  %10 = alloca i32, align 4
  store ptr %0, ptr %4, align 8
  store ptr %1, ptr %5, align 8
  call void @llvm.lifetime.start.p0(i64 8, ptr %6) #6
  %11 = load ptr, ptr %5, align 8
  store ptr %11, ptr %6, align 8
  call void @llvm.lifetime.start.p0(i64 8, ptr %7) #6
  %12 = load ptr, ptr %4, align 8
  store ptr %12, ptr %7, align 8
  %13 = load ptr, ptr %6, align 8
  %14 = getelementptr inbounds nuw %struct.job_info_msg, ptr %13, i32 0, i32 2
  %15 = load i32, ptr %14, align 8
  %16 = icmp ugt i32 %15, 0
  br i1 %16, label %17, label %81

17:                                               ; preds = %2
  call void @llvm.lifetime.start.p0(i64 8, ptr %8) #6
  %18 = load ptr, ptr %6, align 8
  %19 = getelementptr inbounds nuw %struct.job_info_msg, ptr %18, i32 0, i32 3
  %20 = load ptr, ptr %19, align 8
  store ptr %20, ptr %8, align 8
  call void @llvm.lifetime.start.p0(i64 4, ptr %9) #6
  store i32 0, ptr %9, align 4
  br label %21

21:                                               ; preds = %70, %17
  %22 = load i32, ptr %9, align 4
  %23 = load ptr, ptr %6, align 8
  %24 = getelementptr inbounds nuw %struct.job_info_msg, ptr %23, i32 0, i32 2
  %25 = load i32, ptr %24, align 8
  %26 = icmp ult i32 %22, %25
  br i1 %26, label %28, label %27

27:                                               ; preds = %21
  store i32 2, ptr %10, align 4
  br label %75

28:                                               ; preds = %21
  %29 = load ptr, ptr %7, align 8
  %30 = getelementptr inbounds nuw %struct.slurmdb_job_rec_t, ptr %29, i32 0, i32 27
  %31 = load i32, ptr %30, align 4
  %32 = load ptr, ptr %8, align 8
  %33 = getelementptr inbounds nuw %struct.job_info, ptr %32, i32 0, i32 58
  %34 = load i32, ptr %33, align 4
  %35 = icmp eq i32 %31, %34
  br i1 %35, label %36, label %69

36:                                               ; preds = %28
  %37 = load ptr, ptr %7, align 8
  %38 = getelementptr inbounds nuw %struct.slurmdb_job_rec_t, ptr %37, i32 0, i32 53
  %39 = load i64, ptr %38, align 8
  %40 = load ptr, ptr %8, align 8
  %41 = getelementptr inbounds nuw %struct.job_info, ptr %40, i32 0, i32 120
  %42 = load i64, ptr %41, align 8
  %43 = icmp eq i64 %39, %42
  br i1 %43, label %52, label %44

44:                                               ; preds = %36
  %45 = load ptr, ptr %7, align 8
  %46 = getelementptr inbounds nuw %struct.slurmdb_job_rec_t, ptr %45, i32 0, i32 53
  %47 = load i64, ptr %46, align 8
  %48 = load ptr, ptr %8, align 8
  %49 = getelementptr inbounds nuw %struct.job_info, ptr %48, i32 0, i32 102
  %50 = load i64, ptr %49, align 8
  %51 = icmp eq i64 %47, %50
  br i1 %51, label %52, label %69

52:                                               ; preds = %44, %36
  br label %53

53:                                               ; preds = %52
  br label %54

54:                                               ; preds = %53
  %55 = call i32 @get_log_level()
  %56 = icmp sge i32 %55, 9
  br i1 %56, label %57, label %64

57:                                               ; preds = %54
  %58 = load ptr, ptr %7, align 8
  %59 = getelementptr inbounds nuw %struct.slurmdb_job_rec_t, ptr %58, i32 0, i32 27
  %60 = load i32, ptr %59, align 4
  %61 = load ptr, ptr %7, align 8
  %62 = getelementptr inbounds nuw %struct.slurmdb_job_rec_t, ptr %61, i32 0, i32 53
  %63 = load i64, ptr %62, align 8
  call void (i32, ptr, ...) @log_var(i32 noundef 9, ptr noundef @.str.18, ptr noundef @__func__._purge_known_jobs, i32 noundef %60, i64 noundef %63)
  br label %64

64:                                               ; preds = %57, %54
  br label %65

65:                                               ; preds = %64
  br label %66

66:                                               ; preds = %65
  br label %67

67:                                               ; preds = %66
  br label %68

68:                                               ; preds = %67
  store i32 1, ptr %3, align 4
  store i32 1, ptr %10, align 4
  br label %75

69:                                               ; preds = %44, %28
  br label %70

70:                                               ; preds = %69
  %71 = load i32, ptr %9, align 4
  %72 = add nsw i32 %71, 1
  store i32 %72, ptr %9, align 4
  %73 = load ptr, ptr %8, align 8
  %74 = getelementptr inbounds nuw %struct.job_info, ptr %73, i32 1
  store ptr %74, ptr %8, align 8
  br label %21, !llvm.loop !15

75:                                               ; preds = %68, %27
  call void @llvm.lifetime.end.p0(i64 4, ptr %9) #6
  %76 = load i32, ptr %10, align 4
  switch i32 %76, label %78 [
    i32 2, label %77
  ]

77:                                               ; preds = %75
  store i32 0, ptr %10, align 4
  br label %78

78:                                               ; preds = %77, %75
  call void @llvm.lifetime.end.p0(i64 8, ptr %8) #6
  %79 = load i32, ptr %10, align 4
  switch i32 %79, label %98 [
    i32 0, label %80
  ]

80:                                               ; preds = %78
  br label %81

81:                                               ; preds = %80, %2
  br label %82

82:                                               ; preds = %81
  br label %83

83:                                               ; preds = %82
  %84 = call i32 @get_log_level()
  %85 = icmp sge i32 %84, 9
  br i1 %85, label %86, label %93

86:                                               ; preds = %83
  %87 = load ptr, ptr %7, align 8
  %88 = getelementptr inbounds nuw %struct.slurmdb_job_rec_t, ptr %87, i32 0, i32 27
  %89 = load i32, ptr %88, align 4
  %90 = load ptr, ptr %7, align 8
  %91 = getelementptr inbounds nuw %struct.slurmdb_job_rec_t, ptr %90, i32 0, i32 53
  %92 = load i64, ptr %91, align 8
  call void (i32, ptr, ...) @log_var(i32 noundef 9, ptr noundef @.str.19, ptr noundef @__func__._purge_known_jobs, i32 noundef %89, i64 noundef %92)
  br label %93

93:                                               ; preds = %86, %83
  br label %94

94:                                               ; preds = %93
  br label %95

95:                                               ; preds = %94
  br label %96

96:                                               ; preds = %95
  br label %97

97:                                               ; preds = %96
  store i32 0, ptr %3, align 4
  store i32 1, ptr %10, align 4
  br label %98

98:                                               ; preds = %97, %78
  call void @llvm.lifetime.end.p0(i64 8, ptr %7) #6
  call void @llvm.lifetime.end.p0(i64 8, ptr %6) #6
  %99 = load i32, ptr %3, align 4
  ret i32 %99
}