; Function Attrs: nounwind uwtable
define internal range(i32 0, 2) i32 @_purge_known_jobs(ptr noundef readonly captures(none) %0, ptr noundef readonly captures(none) %1) #0 {
  %3 = getelementptr inbounds nuw i8, ptr %1, i64 16
  %4 = load i32, ptr %3, align 8
  %.not = icmp eq i32 %4, 0
  br i1 %.not, label %.critedge, label %5

5:                                                ; preds = %2
  %6 = getelementptr inbounds nuw i8, ptr %1, i64 24
  %7 = load ptr, ptr %6, align 8
  %8 = getelementptr inbounds nuw i8, ptr %0, i64 188
  %9 = load i32, ptr %8, align 4
  %10 = getelementptr inbounds nuw i8, ptr %0, i64 360
  br label %11

11:                                               ; preds = %5, %30
  %.02128 = phi i32 [ 0, %5 ], [ %31, %30 ]
  %.02227 = phi ptr [ %7, %5 ], [ %32, %30 ]
  %12 = getelementptr inbounds nuw i8, ptr %.02227, i64 412
  %13 = load i32, ptr %12, align 4
  %14 = icmp eq i32 %9, %13
  br i1 %14, label %15, label %30

15:                                               ; preds = %11
  %16 = load i64, ptr %10, align 8
  %17 = getelementptr inbounds nuw i8, ptr %.02227, i64 824
  %18 = load i64, ptr %17, align 8
  %19 = icmp eq i64 %16, %18
  br i1 %19, label %24, label %20

20:                                               ; preds = %15
  %21 = getelementptr inbounds nuw i8, ptr %.02227, i64 696
  %22 = load i64, ptr %21, align 8
  %23 = icmp eq i64 %16, %22
  br i1 %23, label %24, label %30

24:                                               ; preds = %20, %15
  %25 = tail call i32 @get_log_level() #8
  %26 = icmp sgt i32 %25, 8
  br i1 %26, label %27, label %40

27:                                               ; preds = %24
  %28 = load i32, ptr %8, align 4
  %29 = load i64, ptr %10, align 8
  tail call void (i32, ptr, ...) @log_var(i32 noundef 9, ptr noundef nonnull @.str.18, ptr noundef nonnull @__func__._purge_known_jobs, i32 noundef %28, i64 noundef %29) #8
  br label %40

30:                                               ; preds = %11, %20
  %31 = add nuw i32 %.02128, 1
  %32 = getelementptr inbounds nuw i8, ptr %.02227, i64 968
  %exitcond.not = icmp eq i32 %31, %4
  br i1 %exitcond.not, label %.critedge, label %11, !llvm.loop !15

.critedge:                                        ; preds = %30, %2
  %33 = tail call i32 @get_log_level() #8
  %34 = icmp sgt i32 %33, 8
  br i1 %34, label %35, label %40

35:                                               ; preds = %.critedge
  %36 = getelementptr inbounds nuw i8, ptr %0, i64 188
  %37 = load i32, ptr %36, align 4
  %38 = getelementptr inbounds nuw i8, ptr %0, i64 360
  %39 = load i64, ptr %38, align 8
  tail call void (i32, ptr, ...) @log_var(i32 noundef 9, ptr noundef nonnull @.str.19, ptr noundef nonnull @__func__._purge_known_jobs, i32 noundef %37, i64 noundef %39) #8
  br label %40

40:                                               ; preds = %27, %24, %.critedge, %35
  %.1 = phi i32 [ 0, %35 ], [ 0, %.critedge ], [ 1, %24 ], [ 1, %27 ]
  ret i32 %.1
}